target datalayout = "e-m:e-p270:32:32-p271:32:32-p272:64:64-i64:64-i128:128-f80:128-n8:16:32:64-S128"
target triple = "x86_64-pc-linux-gnu"

%struct._cms_io_handler = type { ptr, ptr, i32, i32, [256 x i8], ptr, ptr, ptr, ptr, ptr }

; Function Attrs: nounwind uwtable
define hidden i32 @_cmsReadAlignment(ptr noundef %0) #0 {
  %2 = alloca i32, align 4
  %3 = alloca ptr, align 8
  %4 = alloca [4 x i8], align 1
  %5 = alloca i32, align 4
  %6 = alloca i32, align 4
  %7 = alloca i32, align 4
  store ptr %0, ptr %3, align 8
  %8 = load ptr, ptr %3, align 8
  %9 = getelementptr inbounds %struct._cms_io_handler, ptr %8, i32 0, i32 8
  %10 = load ptr, ptr %9, align 8
  %11 = load ptr, ptr %3, align 8
  %12 = call i32 %10(ptr noundef %11)
  store i32 %12, ptr %6, align 4
  %13 = load i32, ptr %6, align 4
  %14 = zext i32 %13 to i64
  %15 = add i64 %14, 3
  %16 = and i64 %15, -4
  %17 = trunc i64 %16 to i32
  store i32 %17, ptr %5, align 4
  %18 = load i32, ptr %5, align 4
  %19 = load i32, ptr %6, align 4
  %20 = sub i32 %18, %19
  store i32 %20, ptr %7, align 4
  %21 = load i32, ptr %7, align 4
  %22 = icmp eq i32 %21, 0
  br i1 %22, label %23, label %24

23:                                               ; preds = %1
  store i32 1, ptr %2, align 4
  br label %38

24:                                               ; preds = %1
  %25 = load i32, ptr %7, align 4
  %26 = icmp ugt i32 %25, 4
  br i1 %26, label %27, label %28

27:                                               ; preds = %24
  store i32 0, ptr %2, align 4
  br label %38

28:                                               ; preds = %24
  %29 = load ptr, ptr %3, align 8
  %30 = getelementptr inbounds %struct._cms_io_handler, ptr %29, i32 0, i32 5
  %31 = load ptr, ptr %30, align 8
  %32 = load ptr, ptr %3, align 8
  %33 = getelementptr inbounds [4 x i8], ptr %4, i64 0, i64 0
  %34 = load i32, ptr %7, align 4
  %35 = call i32 %31(ptr noundef %32, ptr noundef %33, i32 noundef %34, i32 noundef 1)
  %36 = icmp eq i32 %35, 1
  %37 = zext i1 %36 to i32
  store i32 %37, ptr %2, align 4
  br label %38

38:                                               ; preds = %28, %27, %23
  %39 = load i32, ptr %2, align 4
  ret i32 %39
}