; Function Attrs: nounwind uwtable
define hidden range(i32 0, 2) i32 @_cmsReadAlignment(ptr noundef %0) local_unnamed_addr #2 {
  %2 = alloca [4 x i8], align 1
  %3 = getelementptr inbounds i8, ptr %0, i64 304
  %4 = load ptr, ptr %3, align 8
  %5 = tail call i32 %4(ptr noundef %0) #12
  %6 = add i32 %5, 3
  %7 = and i32 %6, -4
  %8 = sub i32 %7, %5
  %9 = icmp eq i32 %7, %5
  br i1 %9, label %18, label %10

10:                                               ; preds = %1
  %11 = icmp ugt i32 %8, 4
  br i1 %11, label %18, label %12

12:                                               ; preds = %10
  %13 = getelementptr inbounds i8, ptr %0, i64 280
  %14 = load ptr, ptr %13, align 8
  %15 = call i32 %14(ptr noundef nonnull %0, ptr noundef nonnull %2, i32 noundef %8, i32 noundef 1) #12
  %16 = icmp eq i32 %15, 1
  %17 = zext i1 %16 to i32
  br label %18

18:                                               ; preds = %10, %1, %12
  %.0 = phi i32 [ %17, %12 ], [ 1, %1 ], [ 0, %10 ]
  ret i32 %.0
}